target datalayout = "e-m:e-p270:32:32-p271:32:32-p272:64:64-i64:64-i128:128-f80:128-n8:16:32:64-S128"
target triple = "x86_64-pc-linux-gnu"

%struct._MRIStepInnerStepper = type { ptr, ptr, ptr, ptr, i32, i32, i32, double, double, ptr, ptr, i64, i64, i64, i64 }

; Function Attrs: nounwind uwtable
define i32 @mriStepInnerStepper_FreeVecs(ptr noundef %0) #0 {
  %2 = alloca i32, align 4
  %3 = alloca ptr, align 8
  store ptr %0, ptr %3, align 8, !tbaa !11
  %4 = load ptr, ptr %3, align 8, !tbaa !11
  %5 = icmp eq ptr %4, null
  br i1 %5, label %6, label %7

6:                                                ; preds = %1
  store i32 -22, ptr %2, align 4
  br label %45

7:                                                ; preds = %1
  %8 = load ptr, ptr %3, align 8, !tbaa !11
  %9 = getelementptr inbounds nuw %struct._MRIStepInnerStepper, ptr %8, i32 0, i32 5
  %10 = load i32, ptr %9, align 4, !tbaa !227
  %11 = load ptr, ptr %3, align 8, !tbaa !11
  %12 = getelementptr inbounds nuw %struct._MRIStepInnerStepper, ptr %11, i32 0, i32 3
  %13 = load ptr, ptr %3, align 8, !tbaa !11
  %14 = getelementptr inbounds nuw %struct._MRIStepInnerStepper, ptr %13, i32 0, i32 11
  %15 = load i64, ptr %14, align 8, !tbaa !239
  %16 = load ptr, ptr %3, align 8, !tbaa !11
  %17 = getelementptr inbounds nuw %struct._MRIStepInnerStepper, ptr %16, i32 0, i32 13
  %18 = load ptr, ptr %3, align 8, !tbaa !11
  %19 = getelementptr inbounds nuw %struct._MRIStepInnerStepper, ptr %18, i32 0, i32 12
  %20 = load i64, ptr %19, align 8, !tbaa !240
  %21 = load ptr, ptr %3, align 8, !tbaa !11
  %22 = getelementptr inbounds nuw %struct._MRIStepInnerStepper, ptr %21, i32 0, i32 14
  call void @arkFreeVecArray(i32 noundef %10, ptr noundef %12, i64 noundef %15, ptr noundef %17, i64 noundef %20, ptr noundef %22)
  %23 = load ptr, ptr %3, align 8, !tbaa !11
  %24 = getelementptr inbounds nuw %struct._MRIStepInnerStepper, ptr %23, i32 0, i32 10
  %25 = load ptr, ptr %24, align 8, !tbaa !241
  %26 = icmp ne ptr %25, null
  br i1 %26, label %27, label %33

27:                                               ; preds = %7
  %28 = load ptr, ptr %3, align 8, !tbaa !11
  %29 = getelementptr inbounds nuw %struct._MRIStepInnerStepper, ptr %28, i32 0, i32 10
  %30 = load ptr, ptr %29, align 8, !tbaa !241
  call void @free(ptr noundef %30) #8
  %31 = load ptr, ptr %3, align 8, !tbaa !11
  %32 = getelementptr inbounds nuw %struct._MRIStepInnerStepper, ptr %31, i32 0, i32 10
  store ptr null, ptr %32, align 8, !tbaa !241
  br label %33

33:                                               ; preds = %27, %7
  %34 = load ptr, ptr %3, align 8, !tbaa !11
  %35 = getelementptr inbounds nuw %struct._MRIStepInnerStepper, ptr %34, i32 0, i32 9
  %36 = load ptr, ptr %35, align 8, !tbaa !242
  %37 = icmp ne ptr %36, null
  br i1 %37, label %38, label %44

38:                                               ; preds = %33
  %39 = load ptr, ptr %3, align 8, !tbaa !11
  %40 = getelementptr inbounds nuw %struct._MRIStepInnerStepper, ptr %39, i32 0, i32 9
  %41 = load ptr, ptr %40, align 8, !tbaa !242
  call void @free(ptr noundef %41) #8
  %42 = load ptr, ptr %3, align 8, !tbaa !11
  %43 = getelementptr inbounds nuw %struct._MRIStepInnerStepper, ptr %42, i32 0, i32 9
  store ptr null, ptr %43, align 8, !tbaa !242
  br label %44

44:                                               ; preds = %38, %33
  store i32 0, ptr %2, align 4
  br label %45

45:                                               ; preds = %44, %6
  %46 = load i32, ptr %2, align 4
  ret i32 %46
}

; Function Attrs: nounwind uwtable
define i32 @MRIStepInnerStepper_Free(ptr noundef %0) #0 {
  %2 = alloca i32, align 4
  %3 = alloca ptr, align 8
  store ptr %0, ptr %3, align 8, !tbaa !255
  %4 = load ptr, ptr %3, align 8, !tbaa !255
  %5 = load ptr, ptr %4, align 8, !tbaa !11
  %6 = icmp eq ptr %5, null
  br i1 %6, label %7, label %8

7:                                                ; preds = %1
  store i32 0, ptr %2, align 4
  br label %19

8:                                                ; preds = %1
  %9 = load ptr, ptr %3, align 8, !tbaa !255
  %10 = load ptr, ptr %9, align 8, !tbaa !11
  %11 = call i32 @mriStepInnerStepper_FreeVecs(ptr noundef %10)
  %12 = load ptr, ptr %3, align 8, !tbaa !255
  %13 = load ptr, ptr %12, align 8, !tbaa !11
  %14 = getelementptr inbounds nuw %struct._MRIStepInnerStepper, ptr %13, i32 0, i32 1
  %15 = load ptr, ptr %14, align 8, !tbaa !173
  call void @free(ptr noundef %15) #8
  %16 = load ptr, ptr %3, align 8, !tbaa !255
  %17 = load ptr, ptr %16, align 8, !tbaa !11
  call void @free(ptr noundef %17) #8
  %18 = load ptr, ptr %3, align 8, !tbaa !255
  store ptr null, ptr %18, align 8, !tbaa !11
  store i32 0, ptr %2, align 4
  br label %19

19:                                               ; preds = %8, %7
  %20 = load i32, ptr %2, align 4
  ret i32 %20
}