; Function Attrs: nounwind uwtable
define noundef i32 @MRIStepInnerStepper_Free(ptr noundef captures(none) %0) local_unnamed_addr #0 {
  %2 = load ptr, ptr %0, align 8, !tbaa !240
  %3 = icmp eq ptr %2, null
  br i1 %3, label %25, label %4

4:                                                ; preds = %1
  %5 = getelementptr inbounds nuw i8, ptr %2, i64 36
  %6 = load i32, ptr %5, align 4, !tbaa !196
  %7 = getelementptr inbounds nuw i8, ptr %2, i64 24
  %8 = getelementptr inbounds nuw i8, ptr %2, i64 80
  %9 = load i64, ptr %8, align 8, !tbaa !226
  %10 = getelementptr inbounds nuw i8, ptr %2, i64 96
  %11 = getelementptr inbounds nuw i8, ptr %2, i64 88
  %12 = load i64, ptr %11, align 8, !tbaa !227
  %13 = getelementptr inbounds nuw i8, ptr %2, i64 104
  tail call void @arkFreeVecArray(i32 noundef %6, ptr noundef nonnull %7, i64 noundef %9, ptr noundef nonnull %10, i64 noundef %12, ptr noundef nonnull %13) #14
  %14 = getelementptr inbounds nuw i8, ptr %2, i64 72
  %15 = load ptr, ptr %14, align 8, !tbaa !228
  %.not.i = icmp eq ptr %15, null
  br i1 %.not.i, label %17, label %16

16:                                               ; preds = %4
  tail call void @free(ptr noundef nonnull %15) #14
  store ptr null, ptr %14, align 8, !tbaa !228
  br label %17

17:                                               ; preds = %16, %4
  %18 = getelementptr inbounds nuw i8, ptr %2, i64 64
  %19 = load ptr, ptr %18, align 8, !tbaa !229
  %.not16.i = icmp eq ptr %19, null
  br i1 %.not16.i, label %mriStepInnerStepper_FreeVecs.exit, label %20

20:                                               ; preds = %17
  tail call void @free(ptr noundef nonnull %19) #14
  store ptr null, ptr %18, align 8, !tbaa !229
  br label %mriStepInnerStepper_FreeVecs.exit

mriStepInnerStepper_FreeVecs.exit:                ; preds = %17, %20
  %21 = load ptr, ptr %0, align 8, !tbaa !240
  %22 = getelementptr inbounds nuw i8, ptr %21, i64 8
  %23 = load ptr, ptr %22, align 8, !tbaa !103
  tail call void @free(ptr noundef %23) #14
  %24 = load ptr, ptr %0, align 8, !tbaa !240
  tail call void @free(ptr noundef %24) #14
  store ptr null, ptr %0, align 8, !tbaa !240
  br label %25

25:                                               ; preds = %1, %mriStepInnerStepper_FreeVecs.exit
  ret i32 0
}